#include <math.h>
#include <stdio.h>
#include <stdlib.h>
#include <string.h>
#define LEN 100
#define ASCII 100
#define MAX_N 100
#define MAX_N 100
#define L 100
#define MAX 100
#define ASC 100
#define null 0
#define Len 100
#define M 100
#define SUM 100
#define NUMBER 100
#define SIZE 100
#define N 100
#define Max 100
#define X 100
#define Y 100
#define A 100
#define MAXN 100
#define MAXSIZE 100
struct student
{
	int id;
	int score1;
	int score2;
	struct student *next;
};
struct student *head;
struct student *creat(int x)
{
	struct student *p1,*p2;
	p1=p2=(struct student *)malloc(LEN);
    scanf("%d %d %d",&p1->id,&p1->score1,&p1->score2);
	head=0;
	while(p1->id<x)
	{
		if(p1->id==1)
			head=p1;
		else p2->next=p1;
		p2=p1;
		p1=(struct student *)malloc(LEN);
		scanf("%d %d %d",&p1->id,&p1->score1,&p1->score2);
		if(p1->id==x){
			p2->next=p1;
			p2=p1;
		}
	}
	p2->next=0;
	return(head);
}
void main()
{
	int n;
	struct student *p,*q,*j,*k;
	scanf("%d",&n);
	creat(n);
	p=q=head;
	do{
		if((p->score1+p->score2)>(q->score1+q->score2))
			q=p;
		p=p->next;
	}while(p!=0);
	p=j=head;
	do{
		if((p->score1+p->score2)>(j->score1+j->score2)&&p!=q)
			j=p;
		p=p->next;
	}while(p!=0);
	p=k=head;
	do{
		if((p->score1+p->score2)>(k->score1+k->score2)&&p!=q&&p!=j)
			k=p;
		p=p->next;
	}while(p!=0);
	printf("%d %d\n",q->id,(q->score1+q->score2));
	printf("%d %d\n",j->id,(j->score1+j->score2));
	printf("%d %d",k->id,(k->score1+k->score2));
}