target datalayout = "e-m:e-p270:32:32-p271:32:32-p272:64:64-i64:64-f80:128-n8:16:32:64-S128"
target triple = "x86_64-pc-linux-gnu"

%struct.student = type { i32, i32, i32, %struct.student* }

@.str = private unnamed_addr constant [9 x i8] c"%d %d %d\00", align 1
@head = common dso_local global %struct.student* null, align 8
@.str.1 = private unnamed_addr constant [3 x i8] c"%d\00", align 1
@.str.2 = private unnamed_addr constant [7 x i8] c"%d %d\0A\00", align 1
@.str.3 = private unnamed_addr constant [6 x i8] c"%d %d\00", align 1

; Function Attrs: noinline nounwind uwtable
define dso_local %struct.student* @creat(i32 %0) #0 {
  %2 = alloca i32, align 4
  %3 = alloca %struct.student*, align 8
  %4 = alloca %struct.student*, align 8
  store i32 %0, i32* %2, align 4
  %5 = call noalias i8* @malloc(i64 100) #3
  %6 = bitcast i8* %5 to %struct.student*
  store %struct.student* %6, %struct.student** %4, align 8
  store %struct.student* %6, %struct.student** %3, align 8
  %7 = load %struct.student*, %struct.student** %3, align 8
  %8 = getelementptr inbounds %struct.student, %struct.student* %7, i32 0, i32 0
  %9 = load %struct.student*, %struct.student** %3, align 8
  %10 = getelementptr inbounds %struct.student, %struct.student* %9, i32 0, i32 1
  %11 = load %struct.student*, %struct.student** %3, align 8
  %12 = getelementptr inbounds %struct.student, %struct.student* %11, i32 0, i32 2
  %13 = call i32 (i8*, ...) @__isoc99_scanf(i8* getelementptr inbounds ([9 x i8], [9 x i8]* @.str, i64 0, i64 0), i32* %8, i32* %10, i32* %12)
  store %struct.student* null, %struct.student** @head, align 8
  br label %14

14:                                               ; preds = %52, %1
  %15 = load %struct.student*, %struct.student** %3, align 8
  %16 = getelementptr inbounds %struct.student, %struct.student* %15, i32 0, i32 0
  %17 = load i32, i32* %16, align 8
  %18 = load i32, i32* %2, align 4
  %19 = icmp slt i32 %17, %18
  br i1 %19, label %20, label %53

20:                                               ; preds = %14
  %21 = load %struct.student*, %struct.student** %3, align 8
  %22 = getelementptr inbounds %struct.student, %struct.student* %21, i32 0, i32 0
  %23 = load i32, i32* %22, align 8
  %24 = icmp eq i32 %23, 1
  br i1 %24, label %25, label %27

25:                                               ; preds = %20
  %26 = load %struct.student*, %struct.student** %3, align 8
  store %struct.student* %26, %struct.student** @head, align 8
  br label %31

27:                                               ; preds = %20
  %28 = load %struct.student*, %struct.student** %3, align 8
  %29 = load %struct.student*, %struct.student** %4, align 8
  %30 = getelementptr inbounds %struct.student, %struct.student* %29, i32 0, i32 3
  store %struct.student* %28, %struct.student** %30, align 8
  br label %31

31:                                               ; preds = %27, %25
  %32 = load %struct.student*, %struct.student** %3, align 8
  store %struct.student* %32, %struct.student** %4, align 8
  %33 = call noalias i8* @malloc(i64 100) #3
  %34 = bitcast i8* %33 to %struct.student*
  store %struct.student* %34, %struct.student** %3, align 8
  %35 = load %struct.student*, %struct.student** %3, align 8
  %36 = getelementptr inbounds %struct.student, %struct.student* %35, i32 0, i32 0
  %37 = load %struct.student*, %struct.student** %3, align 8
  %38 = getelementptr inbounds %struct.student, %struct.student* %37, i32 0, i32 1
  %39 = load %struct.student*, %struct.student** %3, align 8
  %40 = getelementptr inbounds %struct.student, %struct.student* %39, i32 0, i32 2
  %41 = call i32 (i8*, ...) @__isoc99_scanf(i8* getelementptr inbounds ([9 x i8], [9 x i8]* @.str, i64 0, i64 0), i32* %36, i32* %38, i32* %40)
  %42 = load %struct.student*, %struct.student** %3, align 8
  %43 = getelementptr inbounds %struct.student, %struct.student* %42, i32 0, i32 0
  %44 = load i32, i32* %43, align 8
  %45 = load i32, i32* %2, align 4
  %46 = icmp eq i32 %44, %45
  br i1 %46, label %47, label %52

47:                                               ; preds = %31
  %48 = load %struct.student*, %struct.student** %3, align 8
  %49 = load %struct.student*, %struct.student** %4, align 8
  %50 = getelementptr inbounds %struct.student, %struct.student* %49, i32 0, i32 3
  store %struct.student* %48, %struct.student** %50, align 8
  %51 = load %struct.student*, %struct.student** %3, align 8
  store %struct.student* %51, %struct.student** %4, align 8
  br label %52

52:                                               ; preds = %47, %31
  br label %14

53:                                               ; preds = %14
  %54 = load %struct.student*, %struct.student** %4, align 8
  %55 = getelementptr inbounds %struct.student, %struct.student* %54, i32 0, i32 3
  store %struct.student* null, %struct.student** %55, align 8
  %56 = load %struct.student*, %struct.student** @head, align 8
  ret %struct.student* %56
}

; Function Attrs: noinline nounwind uwtable
define dso_local void @main() #0 {
  %1 = alloca i32, align 4
  %2 = alloca %struct.student*, align 8
  %3 = alloca %struct.student*, align 8
  %4 = alloca %struct.student*, align 8
  %5 = alloca %struct.student*, align 8
  %6 = call i32 (i8*, ...) @__isoc99_scanf(i8* getelementptr inbounds ([3 x i8], [3 x i8]* @.str.1, i64 0, i64 0), i32* %1)
  %7 = load i32, i32* %1, align 4
  %8 = call %struct.student* @creat(i32 %7)
  %9 = load %struct.student*, %struct.student** @head, align 8
  store %struct.student* %9, %struct.student** %3, align 8
  store %struct.student* %9, %struct.student** %2, align 8
  br label %10

10:                                               ; preds = %32, %0
  %11 = load %struct.student*, %struct.student** %2, align 8
  %12 = getelementptr inbounds %struct.student, %struct.student* %11, i32 0, i32 1
  %13 = load i32, i32* %12, align 4
  %14 = load %struct.student*, %struct.student** %2, align 8
  %15 = getelementptr inbounds %struct.student, %struct.student* %14, i32 0, i32 2
  %16 = load i32, i32* %15, align 8
  %17 = add nsw i32 %13, %16
  %18 = load %struct.student*, %struct.student** %3, align 8
  %19 = getelementptr inbounds %struct.student, %struct.student* %18, i32 0, i32 1
  %20 = load i32, i32* %19, align 4
  %21 = load %struct.student*, %struct.student** %3, align 8
  %22 = getelementptr inbounds %struct.student, %struct.student* %21, i32 0, i32 2
  %23 = load i32, i32* %22, align 8
  %24 = add nsw i32 %20, %23
  %25 = icmp sgt i32 %17, %24
  br i1 %25, label %26, label %28

26:                                               ; preds = %10
  %27 = load %struct.student*, %struct.student** %2, align 8
  store %struct.student* %27, %struct.student** %3, align 8
  br label %28

28:                                               ; preds = %26, %10
  %29 = load %struct.student*, %struct.student** %2, align 8
  %30 = getelementptr inbounds %struct.student, %struct.student* %29, i32 0, i32 3
  %31 = load %struct.student*, %struct.student** %30, align 8
  store %struct.student* %31, %struct.student** %2, align 8
  br label %32

32:                                               ; preds = %28
  %33 = load %struct.student*, %struct.student** %2, align 8
  %34 = icmp ne %struct.student* %33, null
  br i1 %34, label %10, label %35

35:                                               ; preds = %32
  %36 = load %struct.student*, %struct.student** @head, align 8
  store %struct.student* %36, %struct.student** %4, align 8
  store %struct.student* %36, %struct.student** %2, align 8
  br label %37

37:                                               ; preds = %63, %35
  %38 = load %struct.student*, %struct.student** %2, align 8
  %39 = getelementptr inbounds %struct.student, %struct.student* %38, i32 0, i32 1
  %40 = load i32, i32* %39, align 4
  %41 = load %struct.student*, %struct.student** %2, align 8
  %42 = getelementptr inbounds %struct.student, %struct.student* %41, i32 0, i32 2
  %43 = load i32, i32* %42, align 8
  %44 = add nsw i32 %40, %43
  %45 = load %struct.student*, %struct.student** %4, align 8
  %46 = getelementptr inbounds %struct.student, %struct.student* %45, i32 0, i32 1
  %47 = load i32, i32* %46, align 4
  %48 = load %struct.student*, %struct.student** %4, align 8
  %49 = getelementptr inbounds %struct.student, %struct.student* %48, i32 0, i32 2
  %50 = load i32, i32* %49, align 8
  %51 = add nsw i32 %47, %50
  %52 = icmp sgt i32 %44, %51
  br i1 %52, label %53, label %59

53:                                               ; preds = %37
  %54 = load %struct.student*, %struct.student** %2, align 8
  %55 = load %struct.student*, %struct.student** %3, align 8
  %56 = icmp ne %struct.student* %54, %55
  br i1 %56, label %57, label %59

57:                                               ; preds = %53
  %58 = load %struct.student*, %struct.student** %2, align 8
  store %struct.student* %58, %struct.student** %4, align 8
  br label %59

59:                                               ; preds = %57, %53, %37
  %60 = load %struct.student*, %struct.student** %2, align 8
  %61 = getelementptr inbounds %struct.student, %struct.student* %60, i32 0, i32 3
  %62 = load %struct.student*, %struct.student** %61, align 8
  store %struct.student* %62, %struct.student** %2, align 8
  br label %63

63:                                               ; preds = %59
  %64 = load %struct.student*, %struct.student** %2, align 8
  %65 = icmp ne %struct.student* %64, null
  br i1 %65, label %37, label %66

66:                                               ; preds = %63
  %67 = load %struct.student*, %struct.student** @head, align 8
  store %struct.student* %67, %struct.student** %5, align 8
  store %struct.student* %67, %struct.student** %2, align 8
  br label %68

68:                                               ; preds = %98, %66
  %69 = load %struct.student*, %struct.student** %2, align 8
  %70 = getelementptr inbounds %struct.student, %struct.student* %69, i32 0, i32 1
  %71 = load i32, i32* %70, align 4
  %72 = load %struct.student*, %struct.student** %2, align 8
  %73 = getelementptr inbounds %struct.student, %struct.student* %72, i32 0, i32 2
  %74 = load i32, i32* %73, align 8
  %75 = add nsw i32 %71, %74
  %76 = load %struct.student*, %struct.student** %5, align 8
  %77 = getelementptr inbounds %struct.student, %struct.student* %76, i32 0, i32 1
  %78 = load i32, i32* %77, align 4
  %79 = load %struct.student*, %struct.student** %5, align 8
  %80 = getelementptr inbounds %struct.student, %struct.student* %79, i32 0, i32 2
  %81 = load i32, i32* %80, align 8
  %82 = add nsw i32 %78, %81
  %83 = icmp sgt i32 %75, %82
  br i1 %83, label %84, label %94

84:                                               ; preds = %68
  %85 = load %struct.student*, %struct.student** %2, align 8
  %86 = load %struct.student*, %struct.student** %3, align 8
  %87 = icmp ne %struct.student* %85, %86
  br i1 %87, label %88, label %94

88:                                               ; preds = %84
  %89 = load %struct.student*, %struct.student** %2, align 8
  %90 = load %struct.student*, %struct.student** %4, align 8
  %91 = icmp ne %struct.student* %89, %90
  br i1 %91, label %92, label %94

92:                                               ; preds = %88
  %93 = load %struct.student*, %struct.student** %2, align 8
  store %struct.student* %93, %struct.student** %5, align 8
  br label %94

94:                                               ; preds = %92, %88, %84, %68
  %95 = load %struct.student*, %struct.student** %2, align 8
  %96 = getelementptr inbounds %struct.student, %struct.student* %95, i32 0, i32 3
  %97 = load %struct.student*, %struct.student** %96, align 8
  store %struct.student* %97, %struct.student** %2, align 8
  br label %98

98:                                               ; preds = %94
  %99 = load %struct.student*, %struct.student** %2, align 8
  %100 = icmp ne %struct.student* %99, null
  br i1 %100, label %68, label %101

101:                                              ; preds = %98
  %102 = load %struct.student*, %struct.student** %3, align 8
  %103 = getelementptr inbounds %struct.student, %struct.student* %102, i32 0, i32 0
  %104 = load i32, i32* %103, align 8
  %105 = load %struct.student*, %struct.student** %3, align 8
  %106 = getelementptr inbounds %struct.student, %struct.student* %105, i32 0, i32 1
  %107 = load i32, i32* %106, align 4
  %108 = load %struct.student*, %struct.student** %3, align 8
  %109 = getelementptr inbounds %struct.student, %struct.student* %108, i32 0, i32 2
  %110 = load i32, i32* %109, align 8
  %111 = add nsw i32 %107, %110
  %112 = call i32 (i8*, ...) @printf(i8* getelementptr inbounds ([7 x i8], [7 x i8]* @.str.2, i64 0, i64 0), i32 %104, i32 %111)
  %113 = load %struct.student*, %struct.student** %4, align 8
  %114 = getelementptr inbounds %struct.student, %struct.student* %113, i32 0, i32 0
  %115 = load i32, i32* %114, align 8
  %116 = load %struct.student*, %struct.student** %4, align 8
  %117 = getelementptr inbounds %struct.student, %struct.student* %116, i32 0, i32 1
  %118 = load i32, i32* %117, align 4
  %119 = load %struct.student*, %struct.student** %4, align 8
  %120 = getelementptr inbounds %struct.student, %struct.student* %119, i32 0, i32 2
  %121 = load i32, i32* %120, align 8
  %122 = add nsw i32 %118, %121
  %123 = call i32 (i8*, ...) @printf(i8* getelementptr inbounds ([7 x i8], [7 x i8]* @.str.2, i64 0, i64 0), i32 %115, i32 %122)
  %124 = load %struct.student*, %struct.student** %5, align 8
  %125 = getelementptr inbounds %struct.student, %struct.student* %124, i32 0, i32 0
  %126 = load i32, i32* %125, align 8
  %127 = load %struct.student*, %struct.student** %5, align 8
  %128 = getelementptr inbounds %struct.student, %struct.student* %127, i32 0, i32 1
  %129 = load i32, i32* %128, align 4
  %130 = load %struct.student*, %struct.student** %5, align 8
  %131 = getelementptr inbounds %struct.student, %struct.student* %130, i32 0, i32 2
  %132 = load i32, i32* %131, align 8
  %133 = add nsw i32 %129, %132
  %134 = call i32 (i8*, ...) @printf(i8* getelementptr inbounds ([6 x i8], [6 x i8]* @.str.3, i64 0, i64 0), i32 %126, i32 %133)
  ret void
}